target datalayout = "e-m:e-p270:32:32-p271:32:32-p272:64:64-i64:64-i128:128-f80:128-n8:16:32:64-S128"
target triple = "x86_64-pc-linux-gnu"

%"struct.icu_77::FormattedStringBuilder::Field" = type { i8 }
%"struct.icu_77::number::impl::MicroProps" = type <{ %"class.icu_77::number::impl::MicroPropsGenerator", %"struct.icu_77::number::impl::SimpleMicroProps", %"class.icu_77::number::impl::RoundingImpl", %"class.icu_77::number::impl::Padder", %"class.icu_77::number::IntegerWidth", i32, [9 x i8], [3 x i8], ptr, ptr, ptr, ptr, %struct.anon.4, %"class.icu_77::MeasureUnit", %"class.icu_77::number::impl::IntMeasures", i32, i32, i8, [7 x i8] }>
%"class.icu_77::number::impl::MicroPropsGenerator" = type { ptr }
%"struct.icu_77::number::impl::SimpleMicroProps" = type { [4 x i8], %"class.icu_77::number::impl::Grouper", i8, i32, %"class.icu_77::UnicodeString", ptr }
%"class.icu_77::number::impl::Grouper" = type { i16, i16, i16, i32 }
%"class.icu_77::UnicodeString" = type { %"class.icu_77::Replaceable", %"union.icu_77::UnicodeString::StackBufferOrFields" }
%"class.icu_77::Replaceable" = type { %"class.icu_77::UObject" }
%"class.icu_77::UObject" = type { ptr }
%"union.icu_77::UnicodeString::StackBufferOrFields" = type { %struct.anon.0, [32 x i8] }
%struct.anon.0 = type { i16, i32, i32, ptr }
%"class.icu_77::number::impl::RoundingImpl" = type <{ %"class.icu_77::number::Precision", i32, i8, [3 x i8] }>
%"class.icu_77::number::Precision" = type <{ i32, [4 x i8], %"union.icu_77::number::Precision::PrecisionUnion", i32, [4 x i8] }>
%"union.icu_77::number::Precision::PrecisionUnion" = type { %"struct.icu_77::number::Precision::PrecisionUnion::IncrementSettings" }
%"struct.icu_77::number::Precision::PrecisionUnion::IncrementSettings" = type { i64, i16, i16 }
%"class.icu_77::number::impl::Padder" = type { i32, %union.anon }
%union.anon = type { %struct.anon.1 }
%struct.anon.1 = type { i32, i32 }
%"class.icu_77::number::IntegerWidth" = type <{ %union.anon.2, i8, [3 x i8] }>
%union.anon.2 = type { i32, [4 x i8] }
%struct.anon.4 = type { %"class.icu_77::number::impl::ScientificModifier", %"class.icu_77::number::impl::EmptyModifier", %"class.icu_77::number::impl::EmptyModifier", %"class.icu_77::number::impl::MultiplierFormatHandler", %"class.icu_77::number::impl::SimpleModifier" }
%"class.icu_77::number::impl::ScientificModifier" = type { %"class.icu_77::number::impl::Modifier", i32, ptr }
%"class.icu_77::number::impl::Modifier" = type { ptr }
%"class.icu_77::number::impl::EmptyModifier" = type <{ %"class.icu_77::number::impl::Modifier", i8, [7 x i8] }>
%"class.icu_77::number::impl::MultiplierFormatHandler" = type { %"class.icu_77::number::impl::MicroPropsGenerator", %"class.icu_77::number::Scale", ptr }
%"class.icu_77::number::Scale" = type <{ i32, [4 x i8], ptr, i32, [4 x i8] }>
%"class.icu_77::number::impl::SimpleModifier" = type { %"class.icu_77::number::impl::Modifier", %"class.icu_77::UnicodeString", %"struct.icu_77::FormattedStringBuilder::Field", i8, i32, i32, i32, %"struct.icu_77::number::impl::Modifier::Parameters" }
%"struct.icu_77::number::impl::Modifier::Parameters" = type { ptr, i32, i32 }
%"class.icu_77::MeasureUnit" = type <{ %"class.icu_77::UObject", ptr, i16, i8, [5 x i8] }>
%"class.icu_77::number::impl::IntMeasures" = type <{ %"class.icu_77::MaybeStackArray.5", i32, [4 x i8] }>
%"class.icu_77::MaybeStackArray.5" = type { ptr, i32, i8, [2 x i64] }

; Function Attrs: mustprogress nounwind uwtable
define linkonce_odr noundef zeroext i1 @_ZNK6icu_776number4impl6Padder7isValidEv(ptr noundef nonnull align 4 dereferenceable(12) %0) #0 comdat align 2 {
  %2 = alloca ptr, align 8
  store ptr %0, ptr %2, align 8, !tbaa !292
  %3 = load ptr, ptr %2, align 8
  %4 = getelementptr inbounds nuw %"class.icu_77::number::impl::Padder", ptr %3, i32 0, i32 0
  %5 = load i32, ptr %4, align 4, !tbaa !294
  %6 = icmp sgt i32 %5, 0
  ret i1 %6
}

; Function Attrs: mustprogress uwtable
define noundef i32 @_ZN6icu_776number4impl19NumberFormatterImpl12writeAffixesERKNS1_10MicroPropsERNS_22FormattedStringBuilderEiiR10UErrorCode(ptr noundef nonnull align 8 dereferenceable(489) %0, ptr noundef nonnull align 8 dereferenceable(136) %1, i32 noundef %2, i32 noundef %3, ptr noundef nonnull align 4 dereferenceable(4) %4) #1 align 2 {
  %6 = alloca ptr, align 8
  %7 = alloca ptr, align 8
  %8 = alloca i32, align 4
  %9 = alloca i32, align 4
  %10 = alloca ptr, align 8
  %11 = alloca i32, align 4
  store ptr %0, ptr %6, align 8, !tbaa !113
  store ptr %1, ptr %7, align 8, !tbaa !111
  store i32 %2, ptr %8, align 4, !tbaa !14
  store i32 %3, ptr %9, align 4, !tbaa !14
  store ptr %4, ptr %10, align 8, !tbaa !22
  call void @llvm.lifetime.start.p0(i64 4, ptr %11) #14
  %12 = load ptr, ptr %6, align 8, !tbaa !113
  %13 = getelementptr inbounds nuw %"struct.icu_77::number::impl::MicroProps", ptr %12, i32 0, i32 11
  %14 = load ptr, ptr %13, align 8, !tbaa !135
  %15 = load ptr, ptr %7, align 8, !tbaa !111
  %16 = load i32, ptr %8, align 4, !tbaa !14
  %17 = load i32, ptr %9, align 4, !tbaa !14
  %18 = load ptr, ptr %10, align 8, !tbaa !22
  %19 = load ptr, ptr %14, align 8, !tbaa !128
  %20 = getelementptr inbounds ptr, ptr %19, i64 2
  %21 = load ptr, ptr %20, align 8
  %22 = call noundef i32 %21(ptr noundef nonnull align 8 dereferenceable(8) %14, ptr noundef nonnull align 8 dereferenceable(136) %15, i32 noundef %16, i32 noundef %17, ptr noundef nonnull align 4 dereferenceable(4) %18)
  store i32 %22, ptr %11, align 4, !tbaa !14
  %23 = load ptr, ptr %6, align 8, !tbaa !113
  %24 = getelementptr inbounds nuw %"struct.icu_77::number::impl::MicroProps", ptr %23, i32 0, i32 3
  %25 = call noundef zeroext i1 @_ZNK6icu_776number4impl6Padder7isValidEv(ptr noundef nonnull align 4 dereferenceable(12) %24)
  br i1 %25, label %26, label %44

26:                                               ; preds = %5
  %27 = load ptr, ptr %6, align 8, !tbaa !113
  %28 = getelementptr inbounds nuw %"struct.icu_77::number::impl::MicroProps", ptr %27, i32 0, i32 3
  %29 = load ptr, ptr %6, align 8, !tbaa !113
  %30 = getelementptr inbounds nuw %"struct.icu_77::number::impl::MicroProps", ptr %29, i32 0, i32 10
  %31 = load ptr, ptr %30, align 8, !tbaa !136
  %32 = load ptr, ptr %6, align 8, !tbaa !113
  %33 = getelementptr inbounds nuw %"struct.icu_77::number::impl::MicroProps", ptr %32, i32 0, i32 9
  %34 = load ptr, ptr %33, align 8, !tbaa !137
  %35 = load ptr, ptr %7, align 8, !tbaa !111
  %36 = load i32, ptr %8, align 4, !tbaa !14
  %37 = load i32, ptr %11, align 4, !tbaa !14
  %38 = load i32, ptr %9, align 4, !tbaa !14
  %39 = add nsw i32 %37, %38
  %40 = load ptr, ptr %10, align 8, !tbaa !22
  %41 = call noundef i32 @_ZNK6icu_776number4impl6Padder11padAndApplyERKNS1_8ModifierES5_RNS_22FormattedStringBuilderEiiR10UErrorCode(ptr noundef nonnull align 4 dereferenceable(12) %28, ptr noundef nonnull align 8 dereferenceable(8) %31, ptr noundef nonnull align 8 dereferenceable(8) %34, ptr noundef nonnull align 8 dereferenceable(136) %35, i32 noundef %36, i32 noundef %39, ptr noundef nonnull align 4 dereferenceable(4) %40)
  %42 = load i32, ptr %11, align 4, !tbaa !14
  %43 = add nsw i32 %42, %41
  store i32 %43, ptr %11, align 4, !tbaa !14
  br label %75

44:                                               ; preds = %5
  %45 = load ptr, ptr %6, align 8, !tbaa !113
  %46 = getelementptr inbounds nuw %"struct.icu_77::number::impl::MicroProps", ptr %45, i32 0, i32 10
  %47 = load ptr, ptr %46, align 8, !tbaa !136
  %48 = load ptr, ptr %7, align 8, !tbaa !111
  %49 = load i32, ptr %8, align 4, !tbaa !14
  %50 = load i32, ptr %11, align 4, !tbaa !14
  %51 = load i32, ptr %9, align 4, !tbaa !14
  %52 = add nsw i32 %50, %51
  %53 = load ptr, ptr %10, align 8, !tbaa !22
  %54 = load ptr, ptr %47, align 8, !tbaa !128
  %55 = getelementptr inbounds ptr, ptr %54, i64 2
  %56 = load ptr, ptr %55, align 8
  %57 = call noundef i32 %56(ptr noundef nonnull align 8 dereferenceable(8) %47, ptr noundef nonnull align 8 dereferenceable(136) %48, i32 noundef %49, i32 noundef %52, ptr noundef nonnull align 4 dereferenceable(4) %53)
  %58 = load i32, ptr %11, align 4, !tbaa !14
  %59 = add nsw i32 %58, %57
  store i32 %59, ptr %11, align 4, !tbaa !14
  %60 = load ptr, ptr %6, align 8, !tbaa !113
  %61 = getelementptr inbounds nuw %"struct.icu_77::number::impl::MicroProps", ptr %60, i32 0, i32 9
  %62 = load ptr, ptr %61, align 8, !tbaa !137
  %63 = load ptr, ptr %7, align 8, !tbaa !111
  %64 = load i32, ptr %8, align 4, !tbaa !14
  %65 = load i32, ptr %11, align 4, !tbaa !14
  %66 = load i32, ptr %9, align 4, !tbaa !14
  %67 = add nsw i32 %65, %66
  %68 = load ptr, ptr %10, align 8, !tbaa !22
  %69 = load ptr, ptr %62, align 8, !tbaa !128
  %70 = getelementptr inbounds ptr, ptr %69, i64 2
  %71 = load ptr, ptr %70, align 8
  %72 = call noundef i32 %71(ptr noundef nonnull align 8 dereferenceable(8) %62, ptr noundef nonnull align 8 dereferenceable(136) %63, i32 noundef %64, i32 noundef %67, ptr noundef nonnull align 4 dereferenceable(4) %68)
  %73 = load i32, ptr %11, align 4, !tbaa !14
  %74 = add nsw i32 %73, %72
  store i32 %74, ptr %11, align 4, !tbaa !14
  br label %75

75:                                               ; preds = %44, %26
  %76 = load i32, ptr %11, align 4, !tbaa !14
  call void @llvm.lifetime.end.p0(i64 4, ptr %11) #14
  ret i32 %76
}