; Function Attrs: mustprogress uwtable
define noundef i32 @_ZN6icu_776number4impl19NumberFormatterImpl12writeAffixesERKNS1_10MicroPropsERNS_22FormattedStringBuilderEiiR10UErrorCode(ptr noundef nonnull align 8 dereferenceable(489) %0, ptr noundef nonnull align 8 dereferenceable(136) %1, i32 noundef %2, i32 noundef %3, ptr noundef nonnull align 4 dereferenceable(4) %4) local_unnamed_addr #1 align 2 {
  %6 = getelementptr inbounds nuw i8, ptr %0, i64 208
  %7 = load ptr, ptr %6, align 8, !tbaa !106
  %8 = load ptr, ptr %7, align 8, !tbaa !93
  %9 = getelementptr inbounds nuw i8, ptr %8, i64 16
  %10 = load ptr, ptr %9, align 8
  %11 = tail call noundef i32 %10(ptr noundef nonnull align 8 dereferenceable(8) %7, ptr noundef nonnull align 8 dereferenceable(136) %1, i32 noundef %2, i32 noundef %3, ptr noundef nonnull align 4 dereferenceable(4) %4)
  %12 = getelementptr inbounds nuw i8, ptr %0, i64 144
  %13 = load i32, ptr %12, align 8, !tbaa !107
  %14 = icmp sgt i32 %13, 0
  %15 = getelementptr inbounds nuw i8, ptr %0, i64 200
  %16 = load ptr, ptr %15, align 8, !tbaa !108
  br i1 %14, label %17, label %23

17:                                               ; preds = %5
  %18 = getelementptr inbounds nuw i8, ptr %0, i64 192
  %19 = load ptr, ptr %18, align 8, !tbaa !109
  %20 = add nsw i32 %11, %3
  %21 = tail call noundef i32 @_ZNK6icu_776number4impl6Padder11padAndApplyERKNS1_8ModifierES5_RNS_22FormattedStringBuilderEiiR10UErrorCode(ptr noundef nonnull align 4 dereferenceable(12) %12, ptr noundef nonnull align 8 dereferenceable(8) %16, ptr noundef nonnull align 8 dereferenceable(8) %19, ptr noundef nonnull align 8 dereferenceable(136) %1, i32 noundef %2, i32 noundef %20, ptr noundef nonnull align 4 dereferenceable(4) %4)
  %22 = add nsw i32 %21, %11
  br label %38

23:                                               ; preds = %5
  %24 = add nsw i32 %11, %3
  %25 = load ptr, ptr %16, align 8, !tbaa !93
  %26 = getelementptr inbounds nuw i8, ptr %25, i64 16
  %27 = load ptr, ptr %26, align 8
  %28 = tail call noundef i32 %27(ptr noundef nonnull align 8 dereferenceable(8) %16, ptr noundef nonnull align 8 dereferenceable(136) %1, i32 noundef %2, i32 noundef %24, ptr noundef nonnull align 4 dereferenceable(4) %4)
  %29 = add nsw i32 %28, %11
  %30 = getelementptr inbounds nuw i8, ptr %0, i64 192
  %31 = load ptr, ptr %30, align 8, !tbaa !109
  %32 = add nsw i32 %29, %3
  %33 = load ptr, ptr %31, align 8, !tbaa !93
  %34 = getelementptr inbounds nuw i8, ptr %33, i64 16
  %35 = load ptr, ptr %34, align 8
  %36 = tail call noundef i32 %35(ptr noundef nonnull align 8 dereferenceable(8) %31, ptr noundef nonnull align 8 dereferenceable(136) %1, i32 noundef %2, i32 noundef %32, ptr noundef nonnull align 4 dereferenceable(4) %4)
  %37 = add nsw i32 %36, %29
  br label %38

38:                                               ; preds = %23, %17
  %.0 = phi i32 [ %22, %17 ], [ %37, %23 ]
  ret i32 %.0
}